target datalayout = "e-m:e-p270:32:32-p271:32:32-p272:64:64-i64:64-i128:128-f80:128-n8:16:32:64-S128"
target triple = "x86_64-pc-linux-gnu"

%struct.show_one_options = type { i32, i32, i32, i32 }
%struct.option = type { i32, i32, ptr, ptr, ptr, ptr, i32, ptr, i64, ptr, i64, ptr }

; Function Attrs: nounwind uwtable
define internal i32 @hash_callback(ptr noundef %0, ptr noundef %1, i32 noundef %2) #0 {
  %4 = alloca i32, align 4
  %5 = alloca ptr, align 8
  %6 = alloca ptr, align 8
  %7 = alloca i32, align 4
  %8 = alloca ptr, align 8
  %9 = alloca %struct.option, align 8
  %10 = alloca i32, align 4
  store ptr %0, ptr %5, align 8, !tbaa !31
  store ptr %1, ptr %6, align 8, !tbaa !11
  store i32 %2, ptr %7, align 4, !tbaa !4
  call void @llvm.lifetime.start.p0(i64 8, ptr %8) #10
  %11 = load ptr, ptr %5, align 8, !tbaa !31
  %12 = getelementptr inbounds nuw %struct.option, ptr %11, i32 0, i32 3
  %13 = load ptr, ptr %12, align 8, !tbaa !20
  store ptr %13, ptr %8, align 8, !tbaa !33
  call void @llvm.lifetime.start.p0(i64 88, ptr %9) #10
  %14 = load ptr, ptr %5, align 8, !tbaa !31
  call void @llvm.memcpy.p0.p0.i64(ptr align 8 %9, ptr align 8 %14, i64 88, i1 false), !tbaa.struct !35
  %15 = load ptr, ptr %8, align 8, !tbaa !33
  %16 = getelementptr inbounds nuw %struct.show_one_options, ptr %15, i32 0, i32 1
  store i32 1, ptr %16, align 4, !tbaa !38
  %17 = load ptr, ptr %6, align 8, !tbaa !11
  %18 = icmp ne ptr %17, null
  br i1 %18, label %20, label %19

19:                                               ; preds = %3
  store i32 0, ptr %4, align 4
  store i32 1, ptr %10, align 4
  br label %27

20:                                               ; preds = %3
  %21 = load ptr, ptr %8, align 8, !tbaa !33
  %22 = getelementptr inbounds nuw %struct.show_one_options, ptr %21, i32 0, i32 2
  %23 = getelementptr inbounds nuw %struct.option, ptr %9, i32 0, i32 3
  store ptr %22, ptr %23, align 8, !tbaa !20
  %24 = load ptr, ptr %6, align 8, !tbaa !11
  %25 = load i32, ptr %7, align 4, !tbaa !4
  %26 = call i32 @parse_opt_abbrev_cb(ptr noundef %9, ptr noundef %24, i32 noundef %25)
  store i32 %26, ptr %4, align 4
  store i32 1, ptr %10, align 4
  br label %27

27:                                               ; preds = %20, %19
  call void @llvm.lifetime.end.p0(i64 88, ptr %9) #10
  call void @llvm.lifetime.end.p0(i64 8, ptr %8) #10
  %28 = load i32, ptr %4, align 4
  ret i32 %28
}