; Function Attrs: nounwind uwtable
define internal i32 @hash_callback(ptr noundef readonly captures(none) %0, ptr noundef %1, i32 noundef %2) #0 {
  %4 = alloca %struct.option, align 8
  %5 = getelementptr inbounds nuw i8, ptr %0, i64 16
  %6 = load ptr, ptr %5, align 8, !tbaa !15
  call void @llvm.lifetime.start.p0(i64 88, ptr nonnull %4) #12
  call void @llvm.memcpy.p0.p0.i64(ptr noundef nonnull align 8 dereferenceable(88) %4, ptr noundef nonnull align 8 dereferenceable(88) %0, i64 88, i1 false), !tbaa.struct !46
  %7 = getelementptr inbounds nuw i8, ptr %6, i64 4
  store i32 1, ptr %7, align 4, !tbaa !49
  %.not = icmp eq ptr %1, null
  br i1 %.not, label %12, label %8

8:                                                ; preds = %3
  %9 = getelementptr inbounds nuw i8, ptr %6, i64 8
  %10 = getelementptr inbounds nuw i8, ptr %4, i64 16
  store ptr %9, ptr %10, align 8, !tbaa !15
  %11 = call i32 @parse_opt_abbrev_cb(ptr noundef nonnull %4, ptr noundef nonnull %1, i32 noundef %2) #12
  br label %12

12:                                               ; preds = %3, %8
  %.0 = phi i32 [ %11, %8 ], [ 0, %3 ]
  call void @llvm.lifetime.end.p0(i64 88, ptr nonnull %4) #12
  ret i32 %.0
}